; Function Attrs: mustprogress uwtable
define void @_ZN4YAML11NodeBuilder6OnNullERKNS_4MarkEm(ptr nocapture noundef nonnull align 8 dereferenceable(112) %this, ptr noundef nonnull align 4 dereferenceable(12) %mark, i64 noundef %anchor) unnamed_addr #0 align 2 {
entry:
  %call = tail call noundef nonnull align 8 dereferenceable(72) ptr @_ZN4YAML11NodeBuilder4PushERKNS_4MarkEm(ptr noundef nonnull align 8 dereferenceable(112) %this, ptr noundef nonnull align 4 dereferenceable(12) %mark, i64 noundef %anchor)
  tail call void @_ZN4YAML6detail4node12mark_definedEv(ptr noundef nonnull align 8 dereferenceable(72) %call)
  %0 = load ptr, ptr %call, align 8
  %1 = load ptr, ptr %0, align 8
  tail call void @_ZN4YAML6detail9node_data8set_nullEv(ptr noundef nonnull align 8 dereferenceable(176) %1)
  tail call void @_ZN4YAML11NodeBuilder3PopEv(ptr noundef nonnull align 8 dereferenceable(112) %this)
  ret void
}